target datalayout = "e-m:e-p270:32:32-p271:32:32-p272:64:64-i64:64-i128:128-f80:128-n8:16:32:64-S128"
target triple = "x86_64-unknown-linux-gnu"

%struct.BdrvChild = type { ptr, ptr, ptr, i32, ptr, i64, i64, i8, i8, %struct.anon, %struct.anon.0 }
%struct.anon = type { ptr, ptr }
%struct.anon.0 = type { ptr, ptr }

; Function Attrs: nounwind sspstrong uwtable
define dso_local i32 @bdrv_make_zero(ptr noundef %child, i32 noundef %flags) #0 {
entry:
  %retval = alloca i32, align 4
  %child.addr = alloca ptr, align 8
  %flags.addr = alloca i32, align 4
  %ret = alloca i32, align 4
  %target_size = alloca i64, align 8
  %bytes = alloca i64, align 8
  %offset = alloca i64, align 8
  %bs = alloca ptr, align 8
  %_a29 = alloca i64, align 8
  %_b30 = alloca i64, align 8
  %tmp = alloca i64, align 8
  store ptr %child, ptr %child.addr, align 8
  store i32 %flags, ptr %flags.addr, align 4
  store i64 0, ptr %offset, align 8
  %0 = load ptr, ptr %child.addr, align 8
  %bs1 = getelementptr inbounds %struct.BdrvChild, ptr %0, i32 0, i32 0
  %1 = load ptr, ptr %bs1, align 8
  store ptr %1, ptr %bs, align 8
  br label %do.body

do.body:                                          ; preds = %entry
  br label %do.end

do.end:                                           ; preds = %do.body
  %2 = load ptr, ptr %bs, align 8
  %call = call i64 @bdrv_getlength(ptr noundef %2)
  store i64 %call, ptr %target_size, align 8
  %3 = load i64, ptr %target_size, align 8
  %cmp = icmp slt i64 %3, 0
  br i1 %cmp, label %if.then, label %if.end

if.then:                                          ; preds = %do.end
  %4 = load i64, ptr %target_size, align 8
  %conv = trunc i64 %4 to i32
  store i32 %conv, ptr %retval, align 4
  br label %return

if.end:                                           ; preds = %do.end
  br label %for.cond

for.cond:                                         ; preds = %if.end19, %if.then13, %if.end
  %5 = load i64, ptr %target_size, align 8
  %6 = load i64, ptr %offset, align 8
  %sub = sub i64 %5, %6
  store i64 %sub, ptr %_a29, align 8
  store i64 2147483136, ptr %_b30, align 8
  %7 = load i64, ptr %_a29, align 8
  %8 = load i64, ptr %_b30, align 8
  %cmp2 = icmp ult i64 %7, %8
  br i1 %cmp2, label %cond.true, label %cond.false

cond.true:                                        ; preds = %for.cond
  %9 = load i64, ptr %_a29, align 8
  br label %cond.end

cond.false:                                       ; preds = %for.cond
  %10 = load i64, ptr %_b30, align 8
  br label %cond.end

cond.end:                                         ; preds = %cond.false, %cond.true
  %cond = phi i64 [ %9, %cond.true ], [ %10, %cond.false ]
  store i64 %cond, ptr %tmp, align 8
  %11 = load i64, ptr %tmp, align 8
  store i64 %11, ptr %bytes, align 8
  %12 = load i64, ptr %bytes, align 8
  %cmp4 = icmp sle i64 %12, 0
  br i1 %cmp4, label %if.then6, label %if.end7

if.then6:                                         ; preds = %cond.end
  store i32 0, ptr %retval, align 4
  br label %return

if.end7:                                          ; preds = %cond.end
  %13 = load ptr, ptr %bs, align 8
  %14 = load i64, ptr %offset, align 8
  %15 = load i64, ptr %bytes, align 8
  %call8 = call i32 @bdrv_block_status(ptr noundef %13, i64 noundef %14, i64 noundef %15, ptr noundef %bytes, ptr noundef null, ptr noundef null)
  store i32 %call8, ptr %ret, align 4
  %16 = load i32, ptr %ret, align 4
  %cmp9 = icmp slt i32 %16, 0
  br i1 %cmp9, label %if.then11, label %if.end12

if.then11:                                        ; preds = %if.end7
  %17 = load i32, ptr %ret, align 4
  store i32 %17, ptr %retval, align 4
  br label %return

if.end12:                                         ; preds = %if.end7
  %18 = load i32, ptr %ret, align 4
  %and = and i32 %18, 2
  %tobool = icmp ne i32 %and, 0
  br i1 %tobool, label %if.then13, label %if.end14

if.then13:                                        ; preds = %if.end12
  %19 = load i64, ptr %bytes, align 8
  %20 = load i64, ptr %offset, align 8
  %add = add i64 %20, %19
  store i64 %add, ptr %offset, align 8
  br label %for.cond

if.end14:                                         ; preds = %if.end12
  %21 = load ptr, ptr %child.addr, align 8
  %22 = load i64, ptr %offset, align 8
  %23 = load i64, ptr %bytes, align 8
  %24 = load i32, ptr %flags.addr, align 4
  %call15 = call i32 @bdrv_pwrite_zeroes(ptr noundef %21, i64 noundef %22, i64 noundef %23, i32 noundef %24)
  store i32 %call15, ptr %ret, align 4
  %25 = load i32, ptr %ret, align 4
  %cmp16 = icmp slt i32 %25, 0
  br i1 %cmp16, label %if.then18, label %if.end19

if.then18:                                        ; preds = %if.end14
  %26 = load i32, ptr %ret, align 4
  store i32 %26, ptr %retval, align 4
  br label %return

if.end19:                                         ; preds = %if.end14
  %27 = load i64, ptr %bytes, align 8
  %28 = load i64, ptr %offset, align 8
  %add20 = add i64 %28, %27
  store i64 %add20, ptr %offset, align 8
  br label %for.cond

return:                                           ; preds = %if.then18, %if.then11, %if.then6, %if.then
  %29 = load i32, ptr %retval, align 4
  ret i32 %29
}