; Function Attrs: nounwind sspstrong uwtable
define dso_local i32 @bdrv_make_zero(ptr noundef %child, i32 noundef %flags) local_unnamed_addr #0 {
entry:
  %bytes = alloca i64, align 8
  %0 = load ptr, ptr %child, align 8
  %call = tail call i64 @bdrv_getlength(ptr noundef %0) #15
  %cmp = icmp slt i64 %call, 0
  br i1 %cmp, label %if.then, label %for.cond.preheader

for.cond.preheader:                               ; preds = %entry
  %cond15 = tail call i64 @llvm.umin.i64(i64 %call, i64 2147483136)
  store i64 %cond15, ptr %bytes, align 8
  %cmp416 = icmp eq i64 %call, 0
  br i1 %cmp416, label %return, label %if.end7

if.then:                                          ; preds = %entry
  %conv = trunc i64 %call to i32
  br label %return

if.end7:                                          ; preds = %for.cond.preheader, %for.cond.backedge
  %cond18 = phi i64 [ %cond, %for.cond.backedge ], [ %cond15, %for.cond.preheader ]
  %offset.017 = phi i64 [ %offset.0.be, %for.cond.backedge ], [ 0, %for.cond.preheader ]
  %call8 = call i32 @bdrv_block_status(ptr noundef %0, i64 noundef %offset.017, i64 noundef %cond18, ptr noundef nonnull %bytes, ptr noundef null, ptr noundef null) #15
  %cmp9 = icmp slt i32 %call8, 0
  br i1 %cmp9, label %return, label %if.end12

if.end12:                                         ; preds = %if.end7
  %and = and i32 %call8, 2
  %tobool.not = icmp eq i32 %and, 0
  br i1 %tobool.not, label %if.end14, label %for.cond.backedge

for.cond.backedge:                                ; preds = %if.end14, %if.end12
  %.pn = load i64, ptr %bytes, align 8
  %offset.0.be = add i64 %.pn, %offset.017
  %sub = sub i64 %call, %offset.0.be
  %cond = call i64 @llvm.umin.i64(i64 %sub, i64 2147483136)
  store i64 %cond, ptr %bytes, align 8
  %cmp4 = icmp eq i64 %call, %offset.0.be
  br i1 %cmp4, label %return, label %if.end7

if.end14:                                         ; preds = %if.end12
  %1 = load i64, ptr %bytes, align 8
  %call15 = call i32 @bdrv_pwrite_zeroes(ptr noundef nonnull %child, i64 noundef %offset.017, i64 noundef %1, i32 noundef %flags) #15
  %cmp16 = icmp slt i32 %call15, 0
  br i1 %cmp16, label %return, label %for.cond.backedge

return:                                           ; preds = %for.cond.backedge, %if.end7, %if.end14, %for.cond.preheader, %if.then
  %retval.0 = phi i32 [ %conv, %if.then ], [ 0, %for.cond.preheader ], [ 0, %for.cond.backedge ], [ %call8, %if.end7 ], [ %call15, %if.end14 ]
  ret i32 %retval.0
}